target datalayout = "e-m:e-p270:32:32-p271:32:32-p272:64:64-i64:64-i128:128-f80:128-n8:16:32:64-S128"
target triple = "x86_64-pc-linux-gnu"

%struct.lxb_html_tree = type { ptr, ptr, ptr, ptr, ptr, ptr, ptr, %struct.lxb_html_tree_pending_table_t, ptr, i8, i8, i8, i8, i8, i8, ptr, ptr, ptr, i32, i64 }
%struct.lxb_html_tree_pending_table_t = type { ptr, i8 }
%struct.lexbor_array_t = type { ptr, i64, i64 }
%struct.lxb_dom_node = type { %struct.lxb_dom_event_target, i64, i64, i64, ptr, ptr, ptr, ptr, ptr, ptr, ptr, i32, i64 }
%struct.lxb_dom_event_target = type { ptr }

; Function Attrs: nounwind uwtable
define hidden void @lxb_html_tree_open_elements_pop_until_h123456(ptr noundef %0) #0 {
  %2 = alloca ptr, align 8
  %3 = alloca ptr, align 8
  %4 = alloca ptr, align 8
  store ptr %0, ptr %2, align 8
  %5 = load ptr, ptr %2, align 8
  %6 = getelementptr inbounds %struct.lxb_html_tree, ptr %5, i32 0, i32 4
  %7 = load ptr, ptr %6, align 8
  %8 = getelementptr inbounds %struct.lexbor_array_t, ptr %7, i32 0, i32 0
  %9 = load ptr, ptr %8, align 8
  store ptr %9, ptr %3, align 8
  br label %10

10:                                               ; preds = %43, %1
  %11 = load ptr, ptr %2, align 8
  %12 = getelementptr inbounds %struct.lxb_html_tree, ptr %11, i32 0, i32 4
  %13 = load ptr, ptr %12, align 8
  %14 = getelementptr inbounds %struct.lexbor_array_t, ptr %13, i32 0, i32 2
  %15 = load i64, ptr %14, align 8
  %16 = icmp ne i64 %15, 0
  br i1 %16, label %17, label %44

17:                                               ; preds = %10
  %18 = load ptr, ptr %2, align 8
  %19 = getelementptr inbounds %struct.lxb_html_tree, ptr %18, i32 0, i32 4
  %20 = load ptr, ptr %19, align 8
  %21 = getelementptr inbounds %struct.lexbor_array_t, ptr %20, i32 0, i32 2
  %22 = load i64, ptr %21, align 8
  %23 = add i64 %22, -1
  store i64 %23, ptr %21, align 8
  %24 = load ptr, ptr %3, align 8
  %25 = load ptr, ptr %2, align 8
  %26 = getelementptr inbounds %struct.lxb_html_tree, ptr %25, i32 0, i32 4
  %27 = load ptr, ptr %26, align 8
  %28 = getelementptr inbounds %struct.lexbor_array_t, ptr %27, i32 0, i32 2
  %29 = load i64, ptr %28, align 8
  %30 = getelementptr inbounds ptr, ptr %24, i64 %29
  %31 = load ptr, ptr %30, align 8
  store ptr %31, ptr %4, align 8
  %32 = load ptr, ptr %4, align 8
  %33 = getelementptr inbounds %struct.lxb_dom_node, ptr %32, i32 0, i32 1
  %34 = load i64, ptr %33, align 8
  switch i64 %34, label %42 [
    i64 91, label %35
    i64 92, label %35
    i64 93, label %35
    i64 94, label %35
    i64 95, label %35
    i64 96, label %35
  ]

35:                                               ; preds = %17, %17, %17, %17, %17, %17
  %36 = load ptr, ptr %4, align 8
  %37 = getelementptr inbounds %struct.lxb_dom_node, ptr %36, i32 0, i32 3
  %38 = load i64, ptr %37, align 8
  %39 = icmp eq i64 %38, 2
  br i1 %39, label %40, label %41

40:                                               ; preds = %35
  br label %44

41:                                               ; preds = %35
  br label %43

42:                                               ; preds = %17
  br label %43

43:                                               ; preds = %42, %41
  br label %10

44:                                               ; preds = %40, %10
  ret void
}